(lp1
ccopy_reg
_reconstructor
p2
(cgnr.sql.adapters._gnrbaseadapter
GnrDictRow
p3
c__builtin__
list
p4
(lp5
NaVPaperino
p6
aVGA
p7
aV7pTD6ECCEd6evgAiQTg1hA
p8
aI0
atRp9
(dp10
S'_index'
p11
(dp12
S'rowidx'
p13
I4
sS'country'
p14
I2
sS'code'
p15
I0
sS'name'
p16
I1
sS'pkey'
p17
I3
ssba.