(lp1
ccopy_reg
_reconstructor
p2
(cgnr.sql.adapters._gnrbaseadapter
GnrDictRow
p3
c__builtin__
list
p4
(lp5
V000001
p6
aVPaperinohh
p7
aVGA
p8
aV7pTD6ECCEd6evgAiQTg1hA
p9
aI0
atRp10
(dp11
S'_index'
p12
(dp13
S'rowidx'
p14
I4
sS'country'
p15
I2
sS'code'
p16
I0
sS'name'
p17
I1
sS'pkey'
p18
I3
ssba.